; Function Attrs: mustprogress nofree norecurse nosync nounwind willreturn memory(readwrite, inaccessiblemem: none) uwtable
define hidden void @_ZN10FreezeBase5patchERK5frameRS0_S2_b(ptr nocapture noundef nonnull readnone align 8 dereferenceable(80) %0, ptr nocapture noundef nonnull readonly align 8 dereferenceable(56) %1, ptr nocapture noundef nonnull readonly align 8 dereferenceable(56) %2, ptr nocapture noundef nonnull readonly align 8 dereferenceable(56) %3, i1 noundef zeroext %4) local_unnamed_addr #4 align 2 {
  br i1 %4, label %6, label %11

6:                                                ; preds = %5
  %7 = getelementptr inbounds i8, ptr %3, i64 8
  %8 = load ptr, ptr %7, align 8
  %9 = load ptr, ptr %3, align 8
  %10 = getelementptr inbounds i8, ptr %9, i64 -8
  store ptr %8, ptr %10, align 8
  br label %11

11:                                               ; preds = %5, %6
  %12 = load ptr, ptr @_ZN19AbstractInterpreter5_codeE, align 8
  %.not.i.i.i = icmp eq ptr %12, null
  br i1 %.not.i.i.i, label %_ZNK5frame20is_interpreted_frameEv.exit.thread.i, label %_ZNK5frame20is_interpreted_frameEv.exit.i

_ZNK5frame20is_interpreted_frameEv.exit.i:        ; preds = %11
  %13 = getelementptr inbounds i8, ptr %3, i64 8
  %14 = load ptr, ptr %13, align 8
  %15 = getelementptr inbounds i8, ptr %12, i64 8
  %16 = load ptr, ptr %15, align 8
  %.not.i.i.i.i = icmp ule ptr %16, %14
  %17 = getelementptr inbounds i8, ptr %12, i64 20
  %18 = load i32, ptr %17, align 4
  %19 = sext i32 %18 to i64
  %20 = getelementptr inbounds i8, ptr %16, i64 %19
  %21 = icmp ugt ptr %20, %14
  %22 = select i1 %.not.i.i.i.i, i1 %21, i1 false
  br i1 %22, label %23, label %_ZNK5frame20is_interpreted_frameEv.exit.thread.i

23:                                               ; preds = %_ZNK5frame20is_interpreted_frameEv.exit.i
  %24 = getelementptr inbounds i8, ptr %3, i64 40
  %25 = load ptr, ptr %24, align 8
  %26 = load ptr, ptr %3, align 8
  %27 = getelementptr inbounds i8, ptr %26, i64 -16
  %28 = ptrtoint ptr %25 to i64
  %29 = ptrtoint ptr %27 to i64
  %30 = sub i64 %28, %29
  %31 = ashr exact i64 %30, 3
  store i64 %31, ptr %27, align 8
  br label %_ZN10FreezeBase8patch_pdER5frameRKS0_.exit

_ZNK5frame20is_interpreted_frameEv.exit.thread.i: ; preds = %_ZNK5frame20is_interpreted_frameEv.exit.i, %11
  %32 = getelementptr inbounds i8, ptr %3, i64 40
  %33 = load ptr, ptr %32, align 8
  %34 = load ptr, ptr %3, align 8
  %35 = getelementptr inbounds i8, ptr %34, i64 -16
  store ptr %33, ptr %35, align 8
  br label %_ZN10FreezeBase8patch_pdER5frameRKS0_.exit

_ZN10FreezeBase8patch_pdER5frameRKS0_.exit:       ; preds = %23, %_ZNK5frame20is_interpreted_frameEv.exit.thread.i
  %36 = load ptr, ptr @_ZN19AbstractInterpreter5_codeE, align 8
  %.not.i.i = icmp eq ptr %36, null
  br i1 %.not.i.i, label %_ZNK5frame20is_interpreted_frameEv.exit.thread, label %_ZNK5frame20is_interpreted_frameEv.exit

_ZNK5frame20is_interpreted_frameEv.exit:          ; preds = %_ZN10FreezeBase8patch_pdER5frameRKS0_.exit
  %37 = getelementptr inbounds i8, ptr %1, i64 8
  %38 = load ptr, ptr %37, align 8
  %39 = getelementptr inbounds i8, ptr %36, i64 8
  %40 = load ptr, ptr %39, align 8
  %.not.i.i.i9 = icmp ule ptr %40, %38
  %41 = getelementptr inbounds i8, ptr %36, i64 20
  %42 = load i32, ptr %41, align 4
  %43 = sext i32 %42 to i64
  %44 = getelementptr inbounds i8, ptr %40, i64 %43
  %45 = icmp ugt ptr %44, %38
  %46 = select i1 %.not.i.i.i9, i1 %45, i1 false
  br i1 %46, label %47, label %_ZNK5frame20is_interpreted_frameEv.exit.thread

47:                                               ; preds = %_ZNK5frame20is_interpreted_frameEv.exit
  %48 = getelementptr inbounds i8, ptr %3, i64 48
  %49 = load ptr, ptr %48, align 8
  %50 = getelementptr inbounds i8, ptr %2, i64 40
  %51 = load ptr, ptr %50, align 8
  %52 = getelementptr inbounds i8, ptr %51, i64 -8
  %53 = getelementptr inbounds i8, ptr %2, i64 36
  %54 = load i8, ptr %53, align 4
  %55 = trunc i8 %54 to i1
  %56 = ptrtoint ptr %49 to i64
  %57 = ptrtoint ptr %51 to i64
  %58 = sub i64 %56, %57
  %59 = ashr exact i64 %58, 3
  %60 = select i1 %55, i64 %59, i64 %56
  store i64 %60, ptr %52, align 8
  br label %_ZNK5frame20is_interpreted_frameEv.exit.thread

_ZNK5frame20is_interpreted_frameEv.exit.thread:   ; preds = %_ZN10FreezeBase8patch_pdER5frameRKS0_.exit, %47, %_ZNK5frame20is_interpreted_frameEv.exit
  ret void
}